; ModuleID = '21/47.c'
source_filename = "21/47.c"
target datalayout = "e-m:e-p270:32:32-p271:32:32-p272:64:64-i64:64-f80:128-n8:16:32:64-S128"
target triple = "x86_64-pc-linux-gnu"

@.str = private unnamed_addr constant [3 x i8] c"%d\00", align 1
@.str.1 = private unnamed_addr constant [4 x i8] c",%d\00", align 1

; Function Attrs: noinline nounwind uwtable
define dso_local i32 @main() #0 {
  %1 = alloca i32, align 4
  %2 = alloca i32, align 4
  %3 = alloca [300 x i32], align 16
  %4 = alloca i32, align 4
  %5 = alloca float, align 4
  %6 = alloca float, align 4
  %7 = alloca [300 x float], align 16
  %8 = alloca i32, align 4
  %9 = alloca float, align 4
  %10 = alloca i32, align 4
  store i32 0, i32* %1, align 4
  %11 = call i32 (i8*, ...) @__isoc99_scanf(i8* getelementptr inbounds ([3 x i8], [3 x i8]* @.str, i64 0, i64 0), i32* %2)
  store i32 0, i32* %4, align 4
  store i32 0, i32* %4, align 4
  br label %12

12:                                               ; preds = %21, %0
  %13 = load i32, i32* %4, align 4
  %14 = load i32, i32* %2, align 4
  %15 = icmp slt i32 %13, %14
  br i1 %15, label %16, label %24

16:                                               ; preds = %12
  %17 = load i32, i32* %4, align 4
  %18 = sext i32 %17 to i64
  %19 = getelementptr inbounds [300 x i32], [300 x i32]* %3, i64 0, i64 %18
  %20 = call i32 (i8*, ...) @__isoc99_scanf(i8* getelementptr inbounds ([3 x i8], [3 x i8]* @.str, i64 0, i64 0), i32* %19)
  br label %21

21:                                               ; preds = %16
  %22 = load i32, i32* %4, align 4
  %23 = add nsw i32 %22, 1
  store i32 %23, i32* %4, align 4
  br label %12

24:                                               ; preds = %12
  store float 0.000000e+00, float* %6, align 4
  store i32 0, i32* %4, align 4
  br label %25

25:                                               ; preds = %37, %24
  %26 = load i32, i32* %4, align 4
  %27 = load i32, i32* %2, align 4
  %28 = icmp slt i32 %26, %27
  br i1 %28, label %29, label %40

29:                                               ; preds = %25
  %30 = load float, float* %6, align 4
  %31 = load i32, i32* %4, align 4
  %32 = sext i32 %31 to i64
  %33 = getelementptr inbounds [300 x i32], [300 x i32]* %3, i64 0, i64 %32
  %34 = load i32, i32* %33, align 4
  %35 = sitofp i32 %34 to float
  %36 = fadd float %30, %35
  store float %36, float* %6, align 4
  br label %37

37:                                               ; preds = %29
  %38 = load i32, i32* %4, align 4
  %39 = add nsw i32 %38, 1
  store i32 %39, i32* %4, align 4
  br label %25

40:                                               ; preds = %25
  %41 = load float, float* %6, align 4
  %42 = load i32, i32* %2, align 4
  %43 = sitofp i32 %42 to float
  %44 = fdiv float %41, %43
  store float %44, float* %5, align 4
  store i32 0, i32* %4, align 4
  br label %45

45:                                               ; preds = %63, %40
  %46 = load i32, i32* %4, align 4
  %47 = load i32, i32* %2, align 4
  %48 = icmp slt i32 %46, %47
  br i1 %48, label %49, label %66

49:                                               ; preds = %45
  %50 = load i32, i32* %4, align 4
  %51 = sext i32 %50 to i64
  %52 = getelementptr inbounds [300 x i32], [300 x i32]* %3, i64 0, i64 %51
  %53 = load i32, i32* %52, align 4
  %54 = sitofp i32 %53 to float
  %55 = load float, float* %5, align 4
  %56 = fsub float %54, %55
  %57 = fpext float %56 to double
  %58 = call double @llvm.fabs.f64(double %57)
  %59 = fptrunc double %58 to float
  %60 = load i32, i32* %4, align 4
  %61 = sext i32 %60 to i64
  %62 = getelementptr inbounds [300 x float], [300 x float]* %7, i64 0, i64 %61
  store float %59, float* %62, align 4
  br label %63

63:                                               ; preds = %49
  %64 = load i32, i32* %4, align 4
  %65 = add nsw i32 %64, 1
  store i32 %65, i32* %4, align 4
  br label %45

66:                                               ; preds = %45
  store i32 0, i32* %4, align 4
  br label %67

67:                                               ; preds = %124, %66
  %68 = load i32, i32* %4, align 4
  %69 = load i32, i32* %2, align 4
  %70 = icmp slt i32 %68, %69
  br i1 %70, label %71, label %127

71:                                               ; preds = %67
  %72 = load i32, i32* %4, align 4
  %73 = add nsw i32 %72, 1
  store i32 %73, i32* %8, align 4
  br label %74

74:                                               ; preds = %120, %71
  %75 = load i32, i32* %8, align 4
  %76 = load i32, i32* %2, align 4
  %77 = icmp slt i32 %75, %76
  br i1 %77, label %78, label %123

78:                                               ; preds = %74
  %79 = load i32, i32* %4, align 4
  %80 = sext i32 %79 to i64
  %81 = getelementptr inbounds [300 x float], [300 x float]* %7, i64 0, i64 %80
  %82 = load float, float* %81, align 4
  %83 = load i32, i32* %8, align 4
  %84 = sext i32 %83 to i64
  %85 = getelementptr inbounds [300 x float], [300 x float]* %7, i64 0, i64 %84
  %86 = load float, float* %85, align 4
  %87 = fcmp olt float %82, %86
  br i1 %87, label %88, label %119

88:                                               ; preds = %78
  %89 = load i32, i32* %4, align 4
  %90 = sext i32 %89 to i64
  %91 = getelementptr inbounds [300 x float], [300 x float]* %7, i64 0, i64 %90
  %92 = load float, float* %91, align 4
  store float %92, float* %9, align 4
  %93 = load i32, i32* %8, align 4
  %94 = sext i32 %93 to i64
  %95 = getelementptr inbounds [300 x float], [300 x float]* %7, i64 0, i64 %94
  %96 = load float, float* %95, align 4
  %97 = load i32, i32* %4, align 4
  %98 = sext i32 %97 to i64
  %99 = getelementptr inbounds [300 x float], [300 x float]* %7, i64 0, i64 %98
  store float %96, float* %99, align 4
  %100 = load float, float* %9, align 4
  %101 = load i32, i32* %8, align 4
  %102 = sext i32 %101 to i64
  %103 = getelementptr inbounds [300 x float], [300 x float]* %7, i64 0, i64 %102
  store float %100, float* %103, align 4
  %104 = load i32, i32* %4, align 4
  %105 = sext i32 %104 to i64
  %106 = getelementptr inbounds [300 x i32], [300 x i32]* %3, i64 0, i64 %105
  %107 = load i32, i32* %106, align 4
  store i32 %107, i32* %10, align 4
  %108 = load i32, i32* %8, align 4
  %109 = sext i32 %108 to i64
  %110 = getelementptr inbounds [300 x i32], [300 x i32]* %3, i64 0, i64 %109
  %111 = load i32, i32* %110, align 4
  %112 = load i32, i32* %4, align 4
  %113 = sext i32 %112 to i64
  %114 = getelementptr inbounds [300 x i32], [300 x i32]* %3, i64 0, i64 %113
  store i32 %111, i32* %114, align 4
  %115 = load i32, i32* %10, align 4
  %116 = load i32, i32* %8, align 4
  %117 = sext i32 %116 to i64
  %118 = getelementptr inbounds [300 x i32], [300 x i32]* %3, i64 0, i64 %117
  store i32 %115, i32* %118, align 4
  br label %119

119:                                              ; preds = %88, %78
  br label %120

120:                                              ; preds = %119
  %121 = load i32, i32* %8, align 4
  %122 = add nsw i32 %121, 1
  store i32 %122, i32* %8, align 4
  br label %74

123:                                              ; preds = %74
  br label %124

124:                                              ; preds = %123
  %125 = load i32, i32* %4, align 4
  %126 = add nsw i32 %125, 1
  store i32 %126, i32* %4, align 4
  br label %67

127:                                              ; preds = %67
  %128 = getelementptr inbounds [300 x i32], [300 x i32]* %3, i64 0, i64 0
  %129 = load i32, i32* %128, align 16
  %130 = call i32 (i8*, ...) @printf(i8* getelementptr inbounds ([3 x i8], [3 x i8]* @.str, i64 0, i64 0), i32 %129)
  store i32 1, i32* %4, align 4
  br label %131

131:                                              ; preds = %150, %127
  %132 = load i32, i32* %4, align 4
  %133 = load i32, i32* %2, align 4
  %134 = icmp slt i32 %132, %133
  br i1 %134, label %135, label %153

135:                                              ; preds = %131
  %136 = load i32, i32* %4, align 4
  %137 = sext i32 %136 to i64
  %138 = getelementptr inbounds [300 x float], [300 x float]* %7, i64 0, i64 %137
  %139 = load float, float* %138, align 4
  %140 = getelementptr inbounds [300 x float], [300 x float]* %7, i64 0, i64 0
  %141 = load float, float* %140, align 16
  %142 = fcmp oeq float %139, %141
  br i1 %142, label %143, label %149

143:                                              ; preds = %135
  %144 = load i32, i32* %4, align 4
  %145 = sext i32 %144 to i64
  %146 = getelementptr inbounds [300 x i32], [300 x i32]* %3, i64 0, i64 %145
  %147 = load i32, i32* %146, align 4
  %148 = call i32 (i8*, ...) @printf(i8* getelementptr inbounds ([4 x i8], [4 x i8]* @.str.1, i64 0, i64 0), i32 %147)
  br label %149

149:                                              ; preds = %143, %135
  br label %150

150:                                              ; preds = %149
  %151 = load i32, i32* %4, align 4
  %152 = add nsw i32 %151, 1
  store i32 %152, i32* %4, align 4
  br label %131

153:                                              ; preds = %131
  %154 = load i32, i32* %1, align 4
  ret i32 %154
}

declare dso_local i32 @__isoc99_scanf(i8*, ...) #1

; Function Attrs: nounwind readnone speculatable willreturn
declare double @llvm.fabs.f64(double) #2

declare dso_local i32 @printf(i8*, ...) #1


!llvm.module.flags = !{!0}
!llvm.ident = !{!1}

!0 = !{i32 1, !"wchar_size", i32 4}
!1 = !{!"clang version 10.0.0-4ubuntu1 "}
